target datalayout = "e-m:e-p270:32:32-p271:32:32-p272:64:64-i64:64-i128:128-f80:128-n8:16:32:64-S128"
target triple = "x86_64-pc-linux-gnu"

@ossl_tdes_desx_cbc_functions = constant [15 x { i32, [4 x i8], ptr }] [{ i32, [4 x i8], ptr } { i32 2, [4 x i8] zeroinitializer, ptr @ossl_tdes_einit }, { i32, [4 x i8], ptr } { i32 3, [4 x i8] zeroinitializer, ptr @ossl_tdes_dinit }, { i32, [4 x i8], ptr } { i32 4, [4 x i8] zeroinitializer, ptr @ossl_cipher_generic_block_update }, { i32, [4 x i8], ptr } { i32 5, [4 x i8] zeroinitializer, ptr @ossl_cipher_generic_block_final }, { i32, [4 x i8], ptr } { i32 6, [4 x i8] zeroinitializer, ptr @ossl_cipher_generic_cipher }, { i32, [4 x i8], ptr } { i32 1, [4 x i8] zeroinitializer, ptr @tdes_desx_cbc_newctx }, { i32, [4 x i8], ptr } { i32 8, [4 x i8] zeroinitializer, ptr @ossl_tdes_dupctx }, { i32, [4 x i8], ptr } { i32 7, [4 x i8] zeroinitializer, ptr @ossl_tdes_freectx }, { i32, [4 x i8], ptr } { i32 9, [4 x i8] zeroinitializer, ptr @tdes_desx_cbc_get_params }, { i32, [4 x i8], ptr } { i32 12, [4 x i8] zeroinitializer, ptr @ossl_cipher_generic_gettable_params }, { i32, [4 x i8], ptr } { i32 10, [4 x i8] zeroinitializer, ptr @ossl_tdes_get_ctx_params }, { i32, [4 x i8], ptr } { i32 13, [4 x i8] zeroinitializer, ptr @ossl_tdes_gettable_ctx_params }, { i32, [4 x i8], ptr } { i32 11, [4 x i8] zeroinitializer, ptr @ossl_tdes_set_ctx_params }, { i32, [4 x i8], ptr } { i32 14, [4 x i8] zeroinitializer, ptr @ossl_tdes_settable_ctx_params }, { i32, [4 x i8], ptr } zeroinitializer], align 16

declare i32 @ossl_tdes_einit(ptr noundef, ptr noundef, i64 noundef, ptr noundef, i64 noundef, ptr noundef) #0

declare i32 @ossl_tdes_dinit(ptr noundef, ptr noundef, i64 noundef, ptr noundef, i64 noundef, ptr noundef) #0

declare i32 @ossl_cipher_generic_block_update(ptr noundef, ptr noundef, ptr noundef, i64 noundef, ptr noundef, i64 noundef) #0

declare i32 @ossl_cipher_generic_block_final(ptr noundef, ptr noundef, ptr noundef, i64 noundef) #0

declare i32 @ossl_cipher_generic_cipher(ptr noundef, ptr noundef, ptr noundef, i64 noundef, ptr noundef, i64 noundef) #0

; Function Attrs: nounwind uwtable
define internal ptr @tdes_desx_cbc_newctx(ptr noundef %0) #1 {
  %2 = alloca ptr, align 8
  store ptr %0, ptr %2, align 8, !tbaa !3
  %3 = load ptr, ptr %2, align 8, !tbaa !3
  %4 = call ptr @ossl_prov_cipher_hw_tdes_desx_cbc()
  %5 = call ptr @ossl_tdes_newctx(ptr noundef %3, i32 noundef 2, i64 noundef 192, i64 noundef 64, i64 noundef 64, i64 noundef 16, ptr noundef %4)
  ret ptr %5
}

declare ptr @ossl_tdes_dupctx(ptr noundef) #0

declare void @ossl_tdes_freectx(ptr noundef) #0

; Function Attrs: nounwind uwtable
define internal i32 @tdes_desx_cbc_get_params(ptr noundef %0) #1 {
  %2 = alloca ptr, align 8
  store ptr %0, ptr %2, align 8, !tbaa !7
  %3 = load ptr, ptr %2, align 8, !tbaa !7
  %4 = call i32 @ossl_tdes_get_params(ptr noundef %3, i32 noundef 2, i64 noundef 16, i64 noundef 192, i64 noundef 64, i64 noundef 64)
  ret i32 %4
}

declare ptr @ossl_cipher_generic_gettable_params(ptr noundef) #0

declare i32 @ossl_tdes_get_ctx_params(ptr noundef, ptr noundef) #0

declare ptr @ossl_tdes_gettable_ctx_params(ptr noundef, ptr noundef) #0

declare i32 @ossl_tdes_set_ctx_params(ptr noundef, ptr noundef) #0

declare ptr @ossl_tdes_settable_ctx_params(ptr noundef, ptr noundef) #0

declare ptr @ossl_tdes_newctx(ptr noundef, i32 noundef, i64 noundef, i64 noundef, i64 noundef, i64 noundef, ptr noundef) #0

declare ptr @ossl_prov_cipher_hw_tdes_desx_cbc() #0

declare i32 @ossl_tdes_get_params(ptr noundef, i32 noundef, i64 noundef, i64 noundef, i64 noundef, i64 noundef) #0


!llvm.module.flags = !{!0, !1, !2}

!0 = !{i32 1, !"wchar_size", i32 4}
!1 = !{i32 8, !"PIC Level", i32 2}
!2 = !{i32 7, !"uwtable", i32 2}
!3 = !{!4, !4, i64 0}
!4 = !{!"any pointer", !5, i64 0}
!5 = !{!"omnipotent char", !6, i64 0}
!6 = !{!"Simple C/C++ TBAA"}
!7 = !{!8, !8, i64 0}
!8 = !{!"p1 _ZTS13ossl_param_st", !4, i64 0}
